; Function Attrs: nounwind uwtable
define ptr @l_Lean_Meta_ArgsPacker_Unary_unpack___boxed(ptr noundef %0, ptr noundef %1) local_unnamed_addr #1 {
  %3 = ptrtoint ptr %0 to i64
  %4 = and i64 %3, 1
  %.not.i4 = icmp eq i64 %4, 0
  br i1 %.not.i4, label %lean_nat_eq.exit.i, label %5, !prof !15

5:                                                ; preds = %2
  %6 = icmp eq ptr %0, inttoptr (i64 1 to ptr)
  br i1 %6, label %10, label %8

lean_nat_eq.exit.i:                               ; preds = %2
  %7 = tail call zeroext i1 @lean_nat_big_eq(ptr noundef %0, ptr noundef nonnull inttoptr (i64 1 to ptr)) #7
  br i1 %7, label %10, label %8

8:                                                ; preds = %lean_nat_eq.exit.i, %5
  %9 = tail call ptr @l_Lean_Meta_ArgsPacker_Unary_unpack___lambda__1(ptr noundef %1, ptr noundef %0, ptr nonnull poison)
  br label %l_Lean_Meta_ArgsPacker_Unary_unpack.exit

10:                                               ; preds = %lean_nat_eq.exit.i, %5
  %11 = ptrtoint ptr %1 to i64
  %12 = and i64 %11, 1
  %.not9.i = icmp eq i64 %12, 0
  br i1 %.not9.i, label %13, label %lean_dec.exit.i

13:                                               ; preds = %10
  %14 = load i32, ptr %1, align 4, !tbaa !8
  %15 = icmp sgt i32 %14, 1
  br i1 %15, label %16, label %18, !prof !11

16:                                               ; preds = %13
  %17 = add nsw i32 %14, -1
  store i32 %17, ptr %1, align 4, !tbaa !8
  br label %lean_dec.exit.i

18:                                               ; preds = %13
  %.not.i.i = icmp eq i32 %14, 0
  br i1 %.not.i.i, label %lean_dec.exit.i, label %19

19:                                               ; preds = %18
  tail call void @lean_dec_ref_cold(ptr noundef nonnull %1) #7
  br label %lean_dec.exit.i

lean_dec.exit.i:                                  ; preds = %19, %18, %16, %10
  %20 = load ptr, ptr @l_Lean_Meta_ArgsPacker_Unary_unpack___closed__1, align 8, !tbaa !12
  br label %l_Lean_Meta_ArgsPacker_Unary_unpack.exit

l_Lean_Meta_ArgsPacker_Unary_unpack.exit:         ; preds = %8, %lean_dec.exit.i
  %.0.i = phi ptr [ %9, %8 ], [ %20, %lean_dec.exit.i ]
  br i1 %.not.i4, label %21, label %lean_dec.exit

21:                                               ; preds = %l_Lean_Meta_ArgsPacker_Unary_unpack.exit
  %22 = load i32, ptr %0, align 4, !tbaa !8
  %23 = icmp sgt i32 %22, 1
  br i1 %23, label %24, label %26, !prof !11

24:                                               ; preds = %21
  %25 = add nsw i32 %22, -1
  store i32 %25, ptr %0, align 4, !tbaa !8
  br label %lean_dec.exit

26:                                               ; preds = %21
  %.not.i = icmp eq i32 %22, 0
  br i1 %.not.i, label %lean_dec.exit, label %27

27:                                               ; preds = %26
  tail call void @lean_dec_ref_cold(ptr noundef nonnull %0) #7
  br label %lean_dec.exit

lean_dec.exit:                                    ; preds = %27, %26, %24, %l_Lean_Meta_ArgsPacker_Unary_unpack.exit
  ret ptr %.0.i
}